target datalayout = "e-m:e-p270:32:32-p271:32:32-p272:64:64-i64:64-i128:128-f80:128-n8:16:32:64-S128"
target triple = "x86_64-pc-linux-gnu"

%struct.ldbState = type { ptr, i32, i32, ptr, ptr, ptr, [64 x i32], i32, i32, i32, ptr, i32, i32, ptr, i64, i32 }

@ldb = dso_local global %struct.ldbState zeroinitializer, align 8
@.str.1 = private unnamed_addr constant [18 x i8] c"<debug> line %d: \00", align 1
@.str.2 = private unnamed_addr constant [3 x i8] c", \00", align 1

; Function Attrs: nounwind uwtable
define dso_local void @ldbLog(ptr noundef %0) #0 {
  %2 = alloca ptr, align 8
  store ptr %0, ptr %2, align 8, !tbaa !16
  %3 = load ptr, ptr getelementptr inbounds nuw (%struct.ldbState, ptr @ldb, i32 0, i32 3), align 8, !tbaa !34
  %4 = load ptr, ptr %2, align 8, !tbaa !16
  %5 = call ptr @listAddNodeTail(ptr noundef %3, ptr noundef %4)
  ret void
}

; Function Attrs: nounwind uwtable
define dso_local ptr @ldbCatStackValue(ptr noundef %0, ptr noundef %1, i32 noundef %2) #0 {
  %4 = alloca ptr, align 8
  %5 = alloca ptr, align 8
  %6 = alloca i32, align 4
  store ptr %0, ptr %4, align 8, !tbaa !16
  store ptr %1, ptr %5, align 8, !tbaa !24
  store i32 %2, ptr %6, align 4, !tbaa !19
  %7 = load ptr, ptr %4, align 8, !tbaa !16
  %8 = load ptr, ptr %5, align 8, !tbaa !24
  %9 = load i32, ptr %6, align 4, !tbaa !19
  %10 = call ptr @ldbCatStackValueRec(ptr noundef %7, ptr noundef %8, i32 noundef %9, i32 noundef 0)
  ret ptr %10
}

; Function Attrs: nounwind uwtable
define dso_local i32 @luaRedisDebugCommand(ptr noundef %0) #0 {
  %2 = alloca i32, align 4
  %3 = alloca ptr, align 8
  %4 = alloca i32, align 4
  %5 = alloca ptr, align 8
  store ptr %0, ptr %3, align 8, !tbaa !24
  %6 = load i32, ptr getelementptr inbounds nuw (%struct.ldbState, ptr @ldb, i32 0, i32 1), align 8, !tbaa !26
  %7 = icmp ne i32 %6, 0
  br i1 %7, label %9, label %8

8:                                                ; preds = %1
  store i32 0, ptr %2, align 4
  br label %33

9:                                                ; preds = %1
  call void @llvm.lifetime.start.p0(i64 4, ptr %4) #14
  %10 = load ptr, ptr %3, align 8, !tbaa !24
  %11 = call i32 @lua_gettop(ptr noundef %10)
  store i32 %11, ptr %4, align 4, !tbaa !19
  call void @llvm.lifetime.start.p0(i64 8, ptr %5) #14
  %12 = call ptr @sdsempty()
  %13 = load i32, ptr getelementptr inbounds nuw (%struct.ldbState, ptr @ldb, i32 0, i32 12), align 4, !tbaa !32
  %14 = call ptr (ptr, ptr, ...) @sdscatprintf(ptr noundef %12, ptr noundef @.str.1, i32 noundef %13)
  store ptr %14, ptr %5, align 8, !tbaa !16
  br label %15

15:                                               ; preds = %30, %9
  %16 = load i32, ptr %4, align 4, !tbaa !19
  %17 = add nsw i32 %16, -1
  store i32 %17, ptr %4, align 4, !tbaa !19
  %18 = icmp ne i32 %16, 0
  br i1 %18, label %19, label %31

19:                                               ; preds = %15
  %20 = load ptr, ptr %5, align 8, !tbaa !16
  %21 = load ptr, ptr %3, align 8, !tbaa !24
  %22 = load i32, ptr %4, align 4, !tbaa !19
  %23 = sub nsw i32 -1, %22
  %24 = call ptr @ldbCatStackValue(ptr noundef %20, ptr noundef %21, i32 noundef %23)
  store ptr %24, ptr %5, align 8, !tbaa !16
  %25 = load i32, ptr %4, align 4, !tbaa !19
  %26 = icmp ne i32 %25, 0
  br i1 %26, label %27, label %30

27:                                               ; preds = %19
  %28 = load ptr, ptr %5, align 8, !tbaa !16
  %29 = call ptr @sdscatlen(ptr noundef %28, ptr noundef @.str.2, i64 noundef 2)
  store ptr %29, ptr %5, align 8, !tbaa !16
  br label %30

30:                                               ; preds = %27, %19
  br label %15, !llvm.loop !33

31:                                               ; preds = %15
  %32 = load ptr, ptr %5, align 8, !tbaa !16
  call void @ldbLog(ptr noundef %32)
  store i32 0, ptr %2, align 4
  call void @llvm.lifetime.end.p0(i64 8, ptr %5) #14
  call void @llvm.lifetime.end.p0(i64 4, ptr %4) #14
  br label %33

33:                                               ; preds = %31, %8
  %34 = load i32, ptr %2, align 4
  ret i32 %34
}