; Function Attrs: nounwind uwtable
define dso_local noundef i32 @luaRedisDebugCommand(ptr noundef %0) #0 {
  %2 = load i32, ptr getelementptr inbounds nuw (i8, ptr @ldb, i64 8), align 8, !tbaa !16
  %.not = icmp eq i32 %2, 0
  br i1 %.not, label %19, label %3

3:                                                ; preds = %1
  %4 = tail call i32 @lua_gettop(ptr noundef %0) #19
  %5 = tail call ptr @sdsempty() #19
  %6 = load i32, ptr getelementptr inbounds nuw (i8, ptr @ldb, i64 324), align 4, !tbaa !24
  %7 = tail call ptr (ptr, ptr, ...) @sdscatprintf(ptr noundef %5, ptr noundef nonnull @.str.1, i32 noundef %6) #19
  %.not1012 = icmp eq i32 %4, 0
  br i1 %.not1012, label %._crit_edge, label %.lr.ph.preheader

.lr.ph.preheader:                                 ; preds = %3
  %8 = add nsw i32 %4, -1
  %9 = sub nsw i32 0, %4
  %10 = tail call ptr @ldbCatStackValueRec(ptr noundef %7, ptr noundef %0, i32 noundef %9, i32 noundef 0)
  %.not1117 = icmp eq i32 %8, 0
  br i1 %.not1117, label %._crit_edge, label %.lr.ph

.lr.ph:                                           ; preds = %.lr.ph.preheader, %.lr.ph
  %11 = phi ptr [ %16, %.lr.ph ], [ %10, %.lr.ph.preheader ]
  %12 = phi i32 [ %14, %.lr.ph ], [ %8, %.lr.ph.preheader ]
  %13 = tail call ptr @sdscatlen(ptr noundef %11, ptr noundef nonnull @.str.2, i64 noundef 2) #19
  %14 = add nsw i32 %12, -1
  %15 = sub nsw i32 0, %12
  %16 = tail call ptr @ldbCatStackValueRec(ptr noundef %13, ptr noundef %0, i32 noundef %15, i32 noundef 0)
  %.not11 = icmp eq i32 %14, 0
  br i1 %.not11, label %._crit_edge, label %.lr.ph, !llvm.loop !25

._crit_edge:                                      ; preds = %.lr.ph, %.lr.ph.preheader, %3
  %.0.lcssa = phi ptr [ %7, %3 ], [ %10, %.lr.ph.preheader ], [ %16, %.lr.ph ]
  %17 = load ptr, ptr getelementptr inbounds nuw (i8, ptr @ldb, i64 16), align 8, !tbaa !26
  %18 = tail call ptr @listAddNodeTail(ptr noundef %17, ptr noundef %.0.lcssa) #19
  br label %19

19:                                               ; preds = %1, %._crit_edge
  ret i32 0
}